target datalayout = "e-m:e-p270:32:32-p271:32:32-p272:64:64-i64:64-i128:128-f80:128-n8:16:32:64-S128"
target triple = "x86_64-pc-linux-gnu"

%class.RAROptions = type { i32, i32, i8, i8, i8, i64, [2048 x i32], [2048 x i32], i32, i8, [2048 x i32], [2048 x i32], i32, i32, i32, i32, [2048 x i32], [2048 x i32], i8, i8, i8, [2048 x i32], i32, i32, i32, i32, i32, i32, i32, i32, i8, i8, i8, i8, i8, i32, i32, i8, i8, i8, i8, i8, i32, i32, i64, i32, i8, i8, i8, i32, i32, i8, i8, i8, i8, i32, i32, i8, i8, i8, i8, [128 x i32], [128 x i32], i8, i8, i8, i8, i8, %class.RarTime, %class.RarTime, %class.RarTime, i8, i8, i8, %class.RarTime, %class.RarTime, %class.RarTime, i8, i8, i8, i64, i64, i8, i8, i8, [16 x %struct.FilterMode], [2048 x i32], i32, i32, i32, i32, i32, i32, i8, [2048 x i32], i32, [2048 x i32], i32, i32, i64, ptr, ptr, ptr }
%class.RarTime = type { i64 }
%struct.FilterMode = type { i32, i32, i32 }

; Function Attrs: mustprogress nounwind uwtable
define linkonce_odr noundef zeroext i1 @_ZN7RarTimeltERS_(ptr noundef nonnull align 8 dereferenceable(8) %0, ptr noundef nonnull align 8 dereferenceable(8) %1) #1 comdat align 2 {
  %3 = alloca ptr, align 8
  %4 = alloca ptr, align 8
  store ptr %0, ptr %3, align 8
  store ptr %1, ptr %4, align 8
  %5 = load ptr, ptr %3, align 8
  %6 = getelementptr inbounds %class.RarTime, ptr %5, i32 0, i32 0
  %7 = load i64, ptr %6, align 8
  %8 = load ptr, ptr %4, align 8
  %9 = getelementptr inbounds %class.RarTime, ptr %8, i32 0, i32 0
  %10 = load i64, ptr %9, align 8
  %11 = icmp ult i64 %7, %10
  ret i1 %11
}

; Function Attrs: mustprogress nounwind uwtable
define linkonce_odr noundef zeroext i1 @_ZN7RarTimegeERS_(ptr noundef nonnull align 8 dereferenceable(8) %0, ptr noundef nonnull align 8 dereferenceable(8) %1) #1 comdat align 2 {
  %3 = alloca ptr, align 8
  %4 = alloca ptr, align 8
  store ptr %0, ptr %3, align 8
  store ptr %1, ptr %4, align 8
  %5 = load ptr, ptr %3, align 8
  %6 = getelementptr inbounds %class.RarTime, ptr %5, i32 0, i32 0
  %7 = load i64, ptr %6, align 8
  %8 = load ptr, ptr %4, align 8
  %9 = getelementptr inbounds %class.RarTime, ptr %8, i32 0, i32 0
  %10 = load i64, ptr %9, align 8
  %11 = icmp ugt i64 %7, %10
  br i1 %11, label %19, label %12

12:                                               ; preds = %2
  %13 = getelementptr inbounds %class.RarTime, ptr %5, i32 0, i32 0
  %14 = load i64, ptr %13, align 8
  %15 = load ptr, ptr %4, align 8
  %16 = getelementptr inbounds %class.RarTime, ptr %15, i32 0, i32 0
  %17 = load i64, ptr %16, align 8
  %18 = icmp eq i64 %14, %17
  br label %19

19:                                               ; preds = %12, %2
  %20 = phi i1 [ true, %2 ], [ %18, %12 ]
  ret i1 %20
}

; Function Attrs: mustprogress nounwind uwtable
define linkonce_odr noundef zeroext i1 @_ZN7RarTime5IsSetEv(ptr noundef nonnull align 8 dereferenceable(8) %0) #1 comdat align 2 {
  %2 = alloca ptr, align 8
  store ptr %0, ptr %2, align 8
  %3 = load ptr, ptr %2, align 8
  %4 = getelementptr inbounds %class.RarTime, ptr %3, i32 0, i32 0
  %5 = load i64, ptr %4, align 8
  %6 = icmp ne i64 %5, 0
  ret i1 %6
}

; Function Attrs: mustprogress uwtable
define noundef zeroext i1 @_ZN11CommandData9TimeCheckER7RarTimeS1_S1_(ptr noundef nonnull align 8 dereferenceable(100904) %0, ptr noundef nonnull align 8 dereferenceable(8) %1, ptr noundef nonnull align 8 dereferenceable(8) %2, ptr noundef nonnull align 8 dereferenceable(8) %3) #0 align 2 {
  %5 = alloca i1, align 1
  %6 = alloca ptr, align 8
  %7 = alloca ptr, align 8
  %8 = alloca ptr, align 8
  %9 = alloca ptr, align 8
  %10 = alloca i8, align 1
  store ptr %0, ptr %6, align 8
  store ptr %1, ptr %7, align 8
  store ptr %2, ptr %8, align 8
  store ptr %3, ptr %9, align 8
  %11 = load ptr, ptr %6, align 8
  store i8 0, ptr %10, align 1
  %12 = getelementptr inbounds %class.RAROptions, ptr %11, i32 0, i32 68
  %13 = call noundef zeroext i1 @_ZN7RarTime5IsSetEv(ptr noundef nonnull align 8 dereferenceable(8) %12)
  br i1 %13, label %14, label %32

14:                                               ; preds = %4
  %15 = load ptr, ptr %7, align 8
  %16 = getelementptr inbounds %class.RAROptions, ptr %11, i32 0, i32 68
  %17 = call noundef zeroext i1 @_ZN7RarTimegeERS_(ptr noundef nonnull align 8 dereferenceable(8) %15, ptr noundef nonnull align 8 dereferenceable(8) %16)
  br i1 %17, label %18, label %25

18:                                               ; preds = %14
  %19 = getelementptr inbounds %class.RAROptions, ptr %11, i32 0, i32 71
  %20 = load i8, ptr %19, align 8
  %21 = trunc i8 %20 to i1
  br i1 %21, label %22, label %23

22:                                               ; preds = %18
  store i8 1, ptr %10, align 1
  br label %24

23:                                               ; preds = %18
  store i1 true, ptr %5, align 1
  br label %140

24:                                               ; preds = %22
  br label %31

25:                                               ; preds = %14
  %26 = getelementptr inbounds %class.RAROptions, ptr %11, i32 0, i32 71
  %27 = load i8, ptr %26, align 8
  %28 = trunc i8 %27 to i1
  br i1 %28, label %29, label %30

29:                                               ; preds = %25
  store i1 false, ptr %5, align 1
  br label %140

30:                                               ; preds = %25
  br label %31

31:                                               ; preds = %30, %24
  br label %32

32:                                               ; preds = %31, %4
  %33 = getelementptr inbounds %class.RAROptions, ptr %11, i32 0, i32 74
  %34 = call noundef zeroext i1 @_ZN7RarTime5IsSetEv(ptr noundef nonnull align 8 dereferenceable(8) %33)
  br i1 %34, label %35, label %53

35:                                               ; preds = %32
  %36 = load ptr, ptr %7, align 8
  %37 = getelementptr inbounds %class.RAROptions, ptr %11, i32 0, i32 74
  %38 = call noundef zeroext i1 @_ZN7RarTimeltERS_(ptr noundef nonnull align 8 dereferenceable(8) %36, ptr noundef nonnull align 8 dereferenceable(8) %37)
  br i1 %38, label %39, label %46

39:                                               ; preds = %35
  %40 = getelementptr inbounds %class.RAROptions, ptr %11, i32 0, i32 77
  %41 = load i8, ptr %40, align 8
  %42 = trunc i8 %41 to i1
  br i1 %42, label %43, label %44

43:                                               ; preds = %39
  store i8 1, ptr %10, align 1
  br label %45

44:                                               ; preds = %39
  store i1 true, ptr %5, align 1
  br label %140

45:                                               ; preds = %43
  br label %52

46:                                               ; preds = %35
  %47 = getelementptr inbounds %class.RAROptions, ptr %11, i32 0, i32 77
  %48 = load i8, ptr %47, align 8
  %49 = trunc i8 %48 to i1
  br i1 %49, label %50, label %51

50:                                               ; preds = %46
  store i1 false, ptr %5, align 1
  br label %140

51:                                               ; preds = %46
  br label %52

52:                                               ; preds = %51, %45
  br label %53

53:                                               ; preds = %52, %32
  %54 = getelementptr inbounds %class.RAROptions, ptr %11, i32 0, i32 69
  %55 = call noundef zeroext i1 @_ZN7RarTime5IsSetEv(ptr noundef nonnull align 8 dereferenceable(8) %54)
  br i1 %55, label %56, label %74

56:                                               ; preds = %53
  %57 = load ptr, ptr %8, align 8
  %58 = getelementptr inbounds %class.RAROptions, ptr %11, i32 0, i32 69
  %59 = call noundef zeroext i1 @_ZN7RarTimegeERS_(ptr noundef nonnull align 8 dereferenceable(8) %57, ptr noundef nonnull align 8 dereferenceable(8) %58)
  br i1 %59, label %60, label %67

60:                                               ; preds = %56
  %61 = getelementptr inbounds %class.RAROptions, ptr %11, i32 0, i32 72
  %62 = load i8, ptr %61, align 1
  %63 = trunc i8 %62 to i1
  br i1 %63, label %64, label %65

64:                                               ; preds = %60
  store i8 1, ptr %10, align 1
  br label %66

65:                                               ; preds = %60
  store i1 true, ptr %5, align 1
  br label %140

66:                                               ; preds = %64
  br label %73

67:                                               ; preds = %56
  %68 = getelementptr inbounds %class.RAROptions, ptr %11, i32 0, i32 72
  %69 = load i8, ptr %68, align 1
  %70 = trunc i8 %69 to i1
  br i1 %70, label %71, label %72

71:                                               ; preds = %67
  store i1 false, ptr %5, align 1
  br label %140

72:                                               ; preds = %67
  br label %73

73:                                               ; preds = %72, %66
  br label %74

74:                                               ; preds = %73, %53
  %75 = getelementptr inbounds %class.RAROptions, ptr %11, i32 0, i32 75
  %76 = call noundef zeroext i1 @_ZN7RarTime5IsSetEv(ptr noundef nonnull align 8 dereferenceable(8) %75)
  br i1 %76, label %77, label %95

77:                                               ; preds = %74
  %78 = load ptr, ptr %8, align 8
  %79 = getelementptr inbounds %class.RAROptions, ptr %11, i32 0, i32 75
  %80 = call noundef zeroext i1 @_ZN7RarTimeltERS_(ptr noundef nonnull align 8 dereferenceable(8) %78, ptr noundef nonnull align 8 dereferenceable(8) %79)
  br i1 %80, label %81, label %88

81:                                               ; preds = %77
  %82 = getelementptr inbounds %class.RAROptions, ptr %11, i32 0, i32 78
  %83 = load i8, ptr %82, align 1
  %84 = trunc i8 %83 to i1
  br i1 %84, label %85, label %86

85:                                               ; preds = %81
  store i8 1, ptr %10, align 1
  br label %87

86:                                               ; preds = %81
  store i1 true, ptr %5, align 1
  br label %140

87:                                               ; preds = %85
  br label %94

88:                                               ; preds = %77
  %89 = getelementptr inbounds %class.RAROptions, ptr %11, i32 0, i32 78
  %90 = load i8, ptr %89, align 1
  %91 = trunc i8 %90 to i1
  br i1 %91, label %92, label %93

92:                                               ; preds = %88
  store i1 false, ptr %5, align 1
  br label %140

93:                                               ; preds = %88
  br label %94

94:                                               ; preds = %93, %87
  br label %95

95:                                               ; preds = %94, %74
  %96 = getelementptr inbounds %class.RAROptions, ptr %11, i32 0, i32 70
  %97 = call noundef zeroext i1 @_ZN7RarTime5IsSetEv(ptr noundef nonnull align 8 dereferenceable(8) %96)
  br i1 %97, label %98, label %116

98:                                               ; preds = %95
  %99 = load ptr, ptr %9, align 8
  %100 = getelementptr inbounds %class.RAROptions, ptr %11, i32 0, i32 70
  %101 = call noundef zeroext i1 @_ZN7RarTimegeERS_(ptr noundef nonnull align 8 dereferenceable(8) %99, ptr noundef nonnull align 8 dereferenceable(8) %100)
  br i1 %101, label %102, label %109

102:                                              ; preds = %98
  %103 = getelementptr inbounds %class.RAROptions, ptr %11, i32 0, i32 73
  %104 = load i8, ptr %103, align 2
  %105 = trunc i8 %104 to i1
  br i1 %105, label %106, label %107

106:                                              ; preds = %102
  store i8 1, ptr %10, align 1
  br label %108

107:                                              ; preds = %102
  store i1 true, ptr %5, align 1
  br label %140

108:                                              ; preds = %106
  br label %115

109:                                              ; preds = %98
  %110 = getelementptr inbounds %class.RAROptions, ptr %11, i32 0, i32 73
  %111 = load i8, ptr %110, align 2
  %112 = trunc i8 %111 to i1
  br i1 %112, label %113, label %114

113:                                              ; preds = %109
  store i1 false, ptr %5, align 1
  br label %140

114:                                              ; preds = %109
  br label %115

115:                                              ; preds = %114, %108
  br label %116

116:                                              ; preds = %115, %95
  %117 = getelementptr inbounds %class.RAROptions, ptr %11, i32 0, i32 76
  %118 = call noundef zeroext i1 @_ZN7RarTime5IsSetEv(ptr noundef nonnull align 8 dereferenceable(8) %117)
  br i1 %118, label %119, label %137

119:                                              ; preds = %116
  %120 = load ptr, ptr %9, align 8
  %121 = getelementptr inbounds %class.RAROptions, ptr %11, i32 0, i32 76
  %122 = call noundef zeroext i1 @_ZN7RarTimeltERS_(ptr noundef nonnull align 8 dereferenceable(8) %120, ptr noundef nonnull align 8 dereferenceable(8) %121)
  br i1 %122, label %123, label %130

123:                                              ; preds = %119
  %124 = getelementptr inbounds %class.RAROptions, ptr %11, i32 0, i32 79
  %125 = load i8, ptr %124, align 2
  %126 = trunc i8 %125 to i1
  br i1 %126, label %127, label %128

127:                                              ; preds = %123
  store i8 1, ptr %10, align 1
  br label %129

128:                                              ; preds = %123
  store i1 true, ptr %5, align 1
  br label %140

129:                                              ; preds = %127
  br label %136

130:                                              ; preds = %119
  %131 = getelementptr inbounds %class.RAROptions, ptr %11, i32 0, i32 79
  %132 = load i8, ptr %131, align 2
  %133 = trunc i8 %132 to i1
  br i1 %133, label %134, label %135

134:                                              ; preds = %130
  store i1 false, ptr %5, align 1
  br label %140

135:                                              ; preds = %130
  br label %136

136:                                              ; preds = %135, %129
  br label %137

137:                                              ; preds = %136, %116
  %138 = load i8, ptr %10, align 1
  %139 = trunc i8 %138 to i1
  store i1 %139, ptr %5, align 1
  br label %140

140:                                              ; preds = %137, %134, %128, %113, %107, %92, %86, %71, %65, %50, %44, %29, %23
  %141 = load i1, ptr %5, align 1
  ret i1 %141
}