; Function Attrs: mustprogress nofree norecurse nosync nounwind willreturn memory(argmem: read) uwtable
define noundef zeroext i1 @_ZN11CommandData9TimeCheckER7RarTimeS1_S1_(ptr noundef nonnull readonly align 8 captures(none) dereferenceable(100904) %0, ptr noundef nonnull readonly align 8 captures(none) dereferenceable(8) %1, ptr noundef nonnull readonly align 8 captures(none) dereferenceable(8) %2, ptr noundef nonnull readonly align 8 captures(none) dereferenceable(8) %3) local_unnamed_addr #4 align 2 {
  %5 = getelementptr inbounds nuw i8, ptr %0, i64 58536
  %6 = load i64, ptr %5, align 8
  %.not = icmp eq i64 %6, 0
  br i1 %.not, label %14, label %7

7:                                                ; preds = %4
  %8 = load i64, ptr %1, align 8
  %spec.select.i.not = icmp ult i64 %8, %6
  %9 = getelementptr inbounds nuw i8, ptr %0, i64 58560
  %10 = load i8, ptr %9, align 8
  %11 = trunc i8 %10 to i1
  br i1 %spec.select.i.not, label %13, label %12

12:                                               ; preds = %7
  br i1 %11, label %14, label %68

13:                                               ; preds = %7
  br i1 %11, label %68, label %14

14:                                               ; preds = %12, %13, %4
  %.0 = phi i1 [ false, %13 ], [ false, %4 ], [ true, %12 ]
  %15 = getelementptr inbounds nuw i8, ptr %0, i64 58568
  %16 = load i64, ptr %15, align 8
  %.not11 = icmp eq i64 %16, 0
  br i1 %.not11, label %25, label %17

17:                                               ; preds = %14
  %18 = load i64, ptr %1, align 8
  %19 = icmp ult i64 %18, %16
  %20 = getelementptr inbounds nuw i8, ptr %0, i64 58592
  %21 = load i8, ptr %20, align 8
  %22 = trunc i8 %21 to i1
  br i1 %19, label %23, label %24

23:                                               ; preds = %17
  br i1 %22, label %25, label %68

24:                                               ; preds = %17
  br i1 %22, label %68, label %25

25:                                               ; preds = %23, %24, %14
  %.1 = phi i1 [ %.0, %24 ], [ %.0, %14 ], [ true, %23 ]
  %26 = getelementptr inbounds nuw i8, ptr %0, i64 58544
  %27 = load i64, ptr %26, align 8
  %.not12 = icmp eq i64 %27, 0
  br i1 %.not12, label %35, label %28

28:                                               ; preds = %25
  %29 = load i64, ptr %2, align 8
  %spec.select.i9.not = icmp ult i64 %29, %27
  %30 = getelementptr inbounds nuw i8, ptr %0, i64 58561
  %31 = load i8, ptr %30, align 1
  %32 = trunc i8 %31 to i1
  br i1 %spec.select.i9.not, label %34, label %33

33:                                               ; preds = %28
  br i1 %32, label %35, label %68

34:                                               ; preds = %28
  br i1 %32, label %68, label %35

35:                                               ; preds = %33, %34, %25
  %.2 = phi i1 [ %.1, %34 ], [ %.1, %25 ], [ true, %33 ]
  %36 = getelementptr inbounds nuw i8, ptr %0, i64 58576
  %37 = load i64, ptr %36, align 8
  %.not13 = icmp eq i64 %37, 0
  br i1 %.not13, label %46, label %38

38:                                               ; preds = %35
  %39 = load i64, ptr %2, align 8
  %40 = icmp ult i64 %39, %37
  %41 = getelementptr inbounds nuw i8, ptr %0, i64 58593
  %42 = load i8, ptr %41, align 1
  %43 = trunc i8 %42 to i1
  br i1 %40, label %44, label %45

44:                                               ; preds = %38
  br i1 %43, label %46, label %68

45:                                               ; preds = %38
  br i1 %43, label %68, label %46

46:                                               ; preds = %44, %45, %35
  %.3 = phi i1 [ %.2, %45 ], [ %.2, %35 ], [ true, %44 ]
  %47 = getelementptr inbounds nuw i8, ptr %0, i64 58552
  %48 = load i64, ptr %47, align 8
  %.not14 = icmp eq i64 %48, 0
  br i1 %.not14, label %56, label %49

49:                                               ; preds = %46
  %50 = load i64, ptr %3, align 8
  %spec.select.i10.not = icmp ult i64 %50, %48
  %51 = getelementptr inbounds nuw i8, ptr %0, i64 58562
  %52 = load i8, ptr %51, align 2
  %53 = trunc i8 %52 to i1
  br i1 %spec.select.i10.not, label %55, label %54

54:                                               ; preds = %49
  br i1 %53, label %56, label %68

55:                                               ; preds = %49
  br i1 %53, label %68, label %56

56:                                               ; preds = %54, %55, %46
  %.4 = phi i1 [ %.3, %55 ], [ %.3, %46 ], [ true, %54 ]
  %57 = getelementptr inbounds nuw i8, ptr %0, i64 58584
  %58 = load i64, ptr %57, align 8
  %.not15 = icmp eq i64 %58, 0
  br i1 %.not15, label %67, label %59

59:                                               ; preds = %56
  %60 = load i64, ptr %3, align 8
  %61 = icmp ult i64 %60, %58
  %62 = getelementptr inbounds nuw i8, ptr %0, i64 58594
  %63 = load i8, ptr %62, align 2
  %64 = trunc i8 %63 to i1
  br i1 %61, label %65, label %66

65:                                               ; preds = %59
  br i1 %64, label %67, label %68

66:                                               ; preds = %59
  br i1 %64, label %68, label %67

67:                                               ; preds = %65, %66, %56
  %.5 = phi i1 [ %.4, %66 ], [ %.4, %56 ], [ true, %65 ]
  br label %68

68:                                               ; preds = %66, %65, %55, %54, %45, %44, %34, %33, %24, %23, %13, %12, %67
  %.08 = phi i1 [ %.5, %67 ], [ true, %12 ], [ false, %13 ], [ true, %23 ], [ false, %24 ], [ true, %33 ], [ false, %34 ], [ true, %44 ], [ false, %45 ], [ true, %54 ], [ false, %55 ], [ true, %65 ], [ false, %66 ]
  ret i1 %.08
}